target datalayout = "e-m:e-p270:32:32-p271:32:32-p272:64:64-i64:64-i128:128-f80:128-n8:16:32:64-S128"
target triple = "x86_64-unknown-linux-gnu"

%"class.sat::literal" = type { i32 }
%"class.sat::binspr" = type <{ ptr, %class.scoped_ptr.38, i32, i32, %class.vector.39, i32, i32, %class.svector.14, %class.svector.14, %class.svector.26, %class.svector.26, i32, i32, i32, i32, i32, [4 x i32], [5 x i32], [5 x i32], [4 x i8] }>
%class.scoped_ptr.38 = type { ptr }
%class.vector.39 = type { ptr }
%class.svector.14 = type { %class.vector.15 }
%class.vector.15 = type { ptr }
%class.svector.26 = type { %class.vector.27 }
%class.vector.27 = type { ptr }

; Function Attrs: mustprogress nounwind uwtable
define linkonce_odr void @_ZSt4swapIbENSt9enable_ifIXsr6__and_ISt6__not_ISt15__is_tuple_likeIT_EESt21is_move_constructibleIS3_ESt18is_move_assignableIS3_EEE5valueEvE4typeERS3_SC_(ptr noundef nonnull align 1 dereferenceable(1) %__a, ptr noundef nonnull align 1 dereferenceable(1) %__b) #4 comdat {
entry:
  %__a.addr = alloca ptr, align 8
  %__b.addr = alloca ptr, align 8
  %__tmp = alloca i8, align 1
  store ptr %__a, ptr %__a.addr, align 8
  store ptr %__b, ptr %__b.addr, align 8
  %0 = load ptr, ptr %__a.addr, align 8
  %1 = load i8, ptr %0, align 1
  %tobool = trunc i8 %1 to i1
  %frombool = zext i1 %tobool to i8
  store i8 %frombool, ptr %__tmp, align 1
  %2 = load ptr, ptr %__b.addr, align 8
  %3 = load i8, ptr %2, align 1
  %tobool1 = trunc i8 %3 to i1
  %4 = load ptr, ptr %__a.addr, align 8
  %frombool2 = zext i1 %tobool1 to i8
  store i8 %frombool2, ptr %4, align 1
  %5 = load i8, ptr %__tmp, align 1
  %tobool3 = trunc i8 %5 to i1
  %6 = load ptr, ptr %__b.addr, align 8
  %frombool4 = zext i1 %tobool3 to i8
  store i8 %frombool4, ptr %6, align 1
  ret void
}

; Function Attrs: mustprogress nounwind uwtable
define linkonce_odr hidden noundef i32 @_ZNK3sat7literal3varEv(ptr noundef nonnull align 4 dereferenceable(4) %this) #4 comdat align 2 {
entry:
  %this.addr = alloca ptr, align 8
  store ptr %this, ptr %this.addr, align 8
  %this1 = load ptr, ptr %this.addr, align 8
  %m_val = getelementptr inbounds %"class.sat::literal", ptr %this1, i32 0, i32 0
  %0 = load i32, ptr %m_val, align 4
  %shr = lshr i32 %0, 1
  ret i32 %shr
}

; Function Attrs: mustprogress uwtable
define hidden void @_ZN3sat6binspr12g_add_binaryENS_7literalES1_b(ptr noundef nonnull align 8 dereferenceable(148) %this, i32 %lit1.coerce, i32 %lit2.coerce, i1 noundef zeroext %flip2) #5 align 2 {
entry:
  %lit1 = alloca %"class.sat::literal", align 4
  %lit2 = alloca %"class.sat::literal", align 4
  %this.addr = alloca ptr, align 8
  %flip2.addr = alloca i8, align 1
  %flip1 = alloca i8, align 1
  %coerce.dive = getelementptr inbounds %"class.sat::literal", ptr %lit1, i32 0, i32 0
  store i32 %lit1.coerce, ptr %coerce.dive, align 4
  %coerce.dive1 = getelementptr inbounds %"class.sat::literal", ptr %lit2, i32 0, i32 0
  store i32 %lit2.coerce, ptr %coerce.dive1, align 4
  store ptr %this, ptr %this.addr, align 8
  %frombool = zext i1 %flip2 to i8
  store i8 %frombool, ptr %flip2.addr, align 1
  %this2 = load ptr, ptr %this.addr, align 8
  store i8 0, ptr %flip1, align 1
  %call = call noundef i32 @_ZNK3sat7literal3varEv(ptr noundef nonnull align 4 dereferenceable(4) %lit1)
  %call3 = call noundef i32 @_ZNK3sat7literal3varEv(ptr noundef nonnull align 4 dereferenceable(4) %lit2)
  %cmp = icmp ugt i32 %call, %call3
  br i1 %cmp, label %if.then, label %if.end

if.then:                                          ; preds = %entry
  call void @_ZSt4swapIbENSt9enable_ifIXsr6__and_ISt6__not_ISt15__is_tuple_likeIT_EESt21is_move_constructibleIS3_ESt18is_move_assignableIS3_EEE5valueEvE4typeERS3_SC_(ptr noundef nonnull align 1 dereferenceable(1) %flip1, ptr noundef nonnull align 1 dereferenceable(1) %flip2.addr) #3
  br label %if.end

if.end:                                           ; preds = %if.then, %entry
  %0 = load i8, ptr %flip1, align 1
  %tobool = trunc i8 %0 to i1
  %cond = select i1 %tobool, i32 5, i32 10
  %1 = load i8, ptr %flip2.addr, align 1
  %tobool4 = trunc i8 %1 to i1
  %cond5 = select i1 %tobool4, i32 3, i32 12
  %or = or i32 %cond, %cond5
  %m_state = getelementptr inbounds %"class.sat::binspr", ptr %this2, i32 0, i32 11
  %2 = load i32, ptr %m_state, align 8
  %and = and i32 %2, %or
  store i32 %and, ptr %m_state, align 8
  ret void
}