; Function Attrs: mustprogress nofree norecurse nosync nounwind willreturn memory(argmem: readwrite) uwtable
define hidden void @_ZN3sat6binspr12g_add_binaryENS_7literalES1_b(ptr nocapture noundef nonnull align 8 dereferenceable(148) %this, i32 %lit1.coerce, i32 %lit2.coerce, i1 noundef zeroext %flip2) local_unnamed_addr #10 align 2 {
entry:
  %shr.i = lshr i32 %lit1.coerce, 1
  %shr.i1 = lshr i32 %lit2.coerce, 1
  %cmp = icmp ule i32 %shr.i, %shr.i1
  %narrow = and i1 %cmp, %flip2
  %tobool.not5 = xor i1 %flip2, true
  %tobool.not = or i1 %cmp, %tobool.not5
  %cond = select i1 %tobool.not, i32 10, i32 5
  %cond5 = select i1 %narrow, i32 3, i32 12
  %or = or i32 %cond, %cond5
  %m_state = getelementptr inbounds i8, ptr %this, i64 72
  %0 = load i32, ptr %m_state, align 8
  %and = and i32 %0, %or
  store i32 %and, ptr %m_state, align 8
  ret void
}